target datalayout = "e-m:e-p270:32:32-p271:32:32-p272:64:64-i64:64-i128:128-f80:128-n8:16:32:64-S128"
target triple = "x86_64-pc-linux-gnu"

%"struct.absl::container_internal::HashtablezInfo" = type { %"struct.absl::profiling_internal::Sample", %"struct.std::atomic", %"struct.std::atomic", %"struct.std::atomic", %"struct.std::atomic", %"struct.std::atomic", %"struct.std::atomic", %"struct.std::atomic", %"struct.std::atomic", %"struct.std::atomic", %"struct.std::atomic", %"class.absl::Time", i32, i16, [64 x ptr], i64, i64, i64 }
%"struct.absl::profiling_internal::Sample" = type { %"class.absl::Mutex", ptr, ptr, i64 }
%"class.absl::Mutex" = type { %"struct.std::atomic.2" }
%"struct.std::atomic.2" = type { %"struct.std::__atomic_base.3" }
%"struct.std::__atomic_base.3" = type { i64 }
%"struct.std::atomic" = type { %"struct.std::__atomic_base" }
%"struct.std::__atomic_base" = type { i64 }
%"class.absl::Time" = type { %"class.absl::Duration" }
%"class.absl::Duration" = type { %"class.absl::Duration::HiRep", i32 }
%"class.absl::Duration::HiRep" = type { i32, i32 }

; Function Attrs: mustprogress nounwind uwtable
define linkonce_odr dso_local noundef i32 @_ZStanSt12memory_orderSt23__memory_order_modifier(i32 noundef %0, i32 noundef %1) #4 comdat {
  %3 = alloca i32, align 4
  %4 = alloca i32, align 4
  store i32 %0, ptr %3, align 4, !tbaa !43
  store i32 %1, ptr %4, align 4, !tbaa !116
  %5 = load i32, ptr %3, align 4, !tbaa !43
  %6 = load i32, ptr %4, align 4, !tbaa !116
  %7 = and i32 %5, %6
  ret i32 %7
}

; Function Attrs: alwaysinline mustprogress nounwind uwtable
define linkonce_odr dso_local noundef i64 @_ZNKSt13__atomic_baseImE4loadESt12memory_order(ptr noundef nonnull align 8 dereferenceable(8) %0, i32 noundef %1) #5 comdat align 2 {
  %3 = alloca ptr, align 8
  %4 = alloca i32, align 4
  %5 = alloca i32, align 4
  %6 = alloca i64, align 8
  store ptr %0, ptr %3, align 8, !tbaa !41
  store i32 %1, ptr %4, align 4, !tbaa !43
  %7 = load ptr, ptr %3, align 8
  call void @llvm.lifetime.start.p0(i64 4, ptr %5) #1
  %8 = load i32, ptr %4, align 4, !tbaa !43
  %9 = call noundef i32 @_ZStanSt12memory_orderSt23__memory_order_modifier(i32 noundef %8, i32 noundef 65535)
  store i32 %9, ptr %5, align 4, !tbaa !43
  br label %10

10:                                               ; preds = %2
  br label %11

11:                                               ; preds = %10
  br label %12

12:                                               ; preds = %11
  br label %13

13:                                               ; preds = %12
  br label %14

14:                                               ; preds = %13
  br label %15

15:                                               ; preds = %14
  %16 = getelementptr inbounds nuw %"struct.std::__atomic_base", ptr %7, i32 0, i32 0
  %17 = load i32, ptr %4, align 4, !tbaa !43
  switch i32 %17, label %18 [
    i32 1, label %20
    i32 2, label %20
    i32 5, label %22
  ]

18:                                               ; preds = %15
  %19 = load atomic i64, ptr %16 monotonic, align 8
  store i64 %19, ptr %6, align 8
  br label %24

20:                                               ; preds = %15, %15
  %21 = load atomic i64, ptr %16 acquire, align 8
  store i64 %21, ptr %6, align 8
  br label %24

22:                                               ; preds = %15
  %23 = load atomic i64, ptr %16 seq_cst, align 8
  store i64 %23, ptr %6, align 8
  br label %24

24:                                               ; preds = %22, %20, %18
  %25 = load i64, ptr %6, align 8, !tbaa !23
  call void @llvm.lifetime.end.p0(i64 4, ptr %5) #1
  ret i64 %25
}

; Function Attrs: alwaysinline mustprogress nounwind uwtable
define linkonce_odr dso_local void @_ZNSt13__atomic_baseImE5storeEmSt12memory_order(ptr noundef nonnull align 8 dereferenceable(8) %0, i64 noundef %1, i32 noundef %2) #5 comdat align 2 {
  %4 = alloca ptr, align 8
  %5 = alloca i64, align 8
  %6 = alloca i32, align 4
  %7 = alloca i32, align 4
  %8 = alloca i64, align 8
  store ptr %0, ptr %4, align 8, !tbaa !41
  store i64 %1, ptr %5, align 8, !tbaa !23
  store i32 %2, ptr %6, align 4, !tbaa !43
  %9 = load ptr, ptr %4, align 8
  call void @llvm.lifetime.start.p0(i64 4, ptr %7) #1
  %10 = load i32, ptr %6, align 4, !tbaa !43
  %11 = call noundef i32 @_ZStanSt12memory_orderSt23__memory_order_modifier(i32 noundef %10, i32 noundef 65535)
  store i32 %11, ptr %7, align 4, !tbaa !43
  br label %12

12:                                               ; preds = %3
  br label %13

13:                                               ; preds = %12
  br label %14

14:                                               ; preds = %13
  br label %15

15:                                               ; preds = %14
  br label %16

16:                                               ; preds = %15
  br label %17

17:                                               ; preds = %16
  br label %18

18:                                               ; preds = %17
  br label %19

19:                                               ; preds = %18
  br label %20

20:                                               ; preds = %19
  %21 = getelementptr inbounds nuw %"struct.std::__atomic_base", ptr %9, i32 0, i32 0
  %22 = load i32, ptr %6, align 4, !tbaa !43
  %23 = load i64, ptr %5, align 8, !tbaa !23
  store i64 %23, ptr %8, align 8, !tbaa !23
  switch i32 %22, label %24 [
    i32 3, label %26
    i32 5, label %28
  ]

24:                                               ; preds = %20
  %25 = load i64, ptr %8, align 8
  store atomic i64 %25, ptr %21 monotonic, align 8
  br label %30

26:                                               ; preds = %20
  %27 = load i64, ptr %8, align 8
  store atomic i64 %27, ptr %21 release, align 8
  br label %30

28:                                               ; preds = %20
  %29 = load i64, ptr %8, align 8
  store atomic i64 %29, ptr %21 seq_cst, align 8
  br label %30

30:                                               ; preds = %28, %26, %24
  call void @llvm.lifetime.end.p0(i64 4, ptr %7) #1
  ret void
}

; Function Attrs: mustprogress nounwind uwtable
define dso_local void @_ZN4absl18container_internal16RecordRehashSlowEPNS0_14HashtablezInfoEm(ptr noundef %0, i64 noundef %1) #4 {
  %3 = alloca ptr, align 8
  %4 = alloca i64, align 8
  store ptr %0, ptr %3, align 8, !tbaa !10
  store i64 %1, ptr %4, align 8, !tbaa !23
  %5 = load i64, ptr %4, align 8, !tbaa !23
  %6 = udiv i64 %5, 16
  store i64 %6, ptr %4, align 8, !tbaa !23
  %7 = load ptr, ptr %3, align 8, !tbaa !10
  %8 = getelementptr inbounds nuw %"struct.absl::container_internal::HashtablezInfo", ptr %7, i32 0, i32 6
  %9 = load i64, ptr %4, align 8, !tbaa !23
  call void @_ZNSt13__atomic_baseImE5storeEmSt12memory_order(ptr noundef nonnull align 8 dereferenceable(8) %8, i64 noundef %9, i32 noundef 0) #1
  %10 = load ptr, ptr %3, align 8, !tbaa !10
  %11 = getelementptr inbounds nuw %"struct.absl::container_internal::HashtablezInfo", ptr %10, i32 0, i32 3
  call void @_ZNSt13__atomic_baseImE5storeEmSt12memory_order(ptr noundef nonnull align 8 dereferenceable(8) %11, i64 noundef 0, i32 noundef 0) #1
  %12 = load ptr, ptr %3, align 8, !tbaa !10
  %13 = getelementptr inbounds nuw %"struct.absl::container_internal::HashtablezInfo", ptr %12, i32 0, i32 4
  %14 = load ptr, ptr %3, align 8, !tbaa !10
  %15 = getelementptr inbounds nuw %"struct.absl::container_internal::HashtablezInfo", ptr %14, i32 0, i32 4
  %16 = call noundef i64 @_ZNKSt13__atomic_baseImE4loadESt12memory_order(ptr noundef nonnull align 8 dereferenceable(8) %15, i32 noundef 0) #1
  %17 = add i64 1, %16
  call void @_ZNSt13__atomic_baseImE5storeEmSt12memory_order(ptr noundef nonnull align 8 dereferenceable(8) %13, i64 noundef %17, i32 noundef 0) #1
  ret void
}