; Function Attrs: mustprogress nofree norecurse nounwind willreturn memory(argmem: readwrite) uwtable
define dso_local void @_ZN4absl18container_internal16RecordRehashSlowEPNS0_14HashtablezInfoEm(ptr noundef captures(none) %0, i64 noundef %1) local_unnamed_addr #6 {
  %3 = lshr i64 %1, 4
  %4 = getelementptr inbounds nuw i8, ptr %0, i64 72
  store atomic i64 %3, ptr %4 monotonic, align 8
  %5 = getelementptr inbounds nuw i8, ptr %0, i64 48
  store atomic i64 0, ptr %5 monotonic, align 8
  %6 = getelementptr inbounds nuw i8, ptr %0, i64 56
  %7 = load atomic i64, ptr %6 monotonic, align 8
  %8 = add i64 %7, 1
  store atomic i64 %8, ptr %6 monotonic, align 8
  ret void
}